; Function Attrs: mustprogress uwtable
define noundef zeroext i1 @_ZNK8QuantLib19ExchangeRateManager6hashesElRKNS_8CurrencyE(ptr nocapture noundef nonnull readnone align 8 dereferenceable(48) %this, i64 noundef %k, ptr noundef nonnull align 8 dereferenceable(16) %c) local_unnamed_addr #3 align 2 {
entry:
  tail call void @_ZNK8QuantLib8Currency13checkNonEmptyEv(ptr noundef nonnull align 8 dereferenceable(16) %c)
  %0 = load ptr, ptr %c, align 8, !tbaa !15
  %cmp.not.i.i = icmp eq ptr %0, null
  br i1 %cmp.not.i.i, label %cond.false.i.i, label %_ZNK8QuantLib8Currency11numericCodeEv.exit, !prof !40

cond.false.i.i:                                   ; preds = %entry
  tail call void @_ZN5boost16assertion_failedEPKcS1_S1_l(ptr noundef nonnull @.str.8, ptr noundef nonnull @__PRETTY_FUNCTION__._ZNK5boost10shared_ptrIN8QuantLib8Currency4DataEEptEv, ptr noundef nonnull @.str.9, i64 noundef 784)
  %.pre.i.i = load ptr, ptr %c, align 8, !tbaa !15
  br label %_ZNK8QuantLib8Currency11numericCodeEv.exit

_ZNK8QuantLib8Currency11numericCodeEv.exit:       ; preds = %entry, %cond.false.i.i
  %1 = phi ptr [ %0, %entry ], [ %.pre.i.i, %cond.false.i.i ]
  %numeric.i = getelementptr inbounds nuw i8, ptr %1, i64 64
  %2 = load i32, ptr %numeric.i, align 8, !tbaa !41
  %conv = sext i32 %2 to i64
  %rem = srem i64 %k, 1000
  %div = sdiv i64 %k, 1000
  %cmp = icmp eq i64 %rem, %conv
  br i1 %cmp, label %lor.end, label %lor.rhs

lor.rhs:                                          ; preds = %_ZNK8QuantLib8Currency11numericCodeEv.exit
  tail call void @_ZNK8QuantLib8Currency13checkNonEmptyEv(ptr noundef nonnull align 8 dereferenceable(16) %c)
  %3 = load ptr, ptr %c, align 8, !tbaa !15
  %cmp.not.i.i3 = icmp eq ptr %3, null
  br i1 %cmp.not.i.i3, label %cond.false.i.i5, label %_ZNK8QuantLib8Currency11numericCodeEv.exit7, !prof !40

cond.false.i.i5:                                  ; preds = %lor.rhs
  tail call void @_ZN5boost16assertion_failedEPKcS1_S1_l(ptr noundef nonnull @.str.8, ptr noundef nonnull @__PRETTY_FUNCTION__._ZNK5boost10shared_ptrIN8QuantLib8Currency4DataEEptEv, ptr noundef nonnull @.str.9, i64 noundef 784)
  %.pre.i.i6 = load ptr, ptr %c, align 8, !tbaa !15
  br label %_ZNK8QuantLib8Currency11numericCodeEv.exit7

_ZNK8QuantLib8Currency11numericCodeEv.exit7:      ; preds = %lor.rhs, %cond.false.i.i5
  %4 = phi ptr [ %3, %lor.rhs ], [ %.pre.i.i6, %cond.false.i.i5 ]
  %numeric.i4 = getelementptr inbounds nuw i8, ptr %4, i64 64
  %5 = load i32, ptr %numeric.i4, align 8, !tbaa !41
  %conv3 = sext i32 %5 to i64
  %cmp4 = icmp eq i64 %div, %conv3
  br label %lor.end

lor.end:                                          ; preds = %_ZNK8QuantLib8Currency11numericCodeEv.exit7, %_ZNK8QuantLib8Currency11numericCodeEv.exit
  %6 = phi i1 [ true, %_ZNK8QuantLib8Currency11numericCodeEv.exit ], [ %cmp4, %_ZNK8QuantLib8Currency11numericCodeEv.exit7 ]
  ret i1 %6
}